; Function Attrs: inlinehint mustprogress nofree norecurse nosync nounwind willreturn memory(read, inaccessiblemem: none) uwtable
define internal fastcc range(i32 0, 2) i32 @Wlc_ObjIsSignedFanin1(ptr noundef readonly captures(none) %0, ptr noundef readonly captures(none) %1) unnamed_addr #15 {
  %3 = getelementptr inbounds nuw i8, ptr %0, i64 616
  %4 = load i32, ptr %3, align 8, !tbaa !214
  %.not = icmp eq i32 %4, 0
  br i1 %.not, label %5, label %22

5:                                                ; preds = %2
  %6 = getelementptr inbounds nuw i8, ptr %1, i64 4
  %7 = load i32, ptr %6, align 4, !tbaa !194
  %8 = icmp ugt i32 %7, 2
  br i1 %8, label %Wlc_ObjHasArray.exit.thread.i.i.i, label %9

9:                                                ; preds = %5
  %10 = load i16, ptr %1, align 8
  %11 = and i16 %10, 63
  switch i16 %11, label %14 [
    i16 6, label %Wlc_ObjHasArray.exit.thread.i.i.i
    i16 22, label %Wlc_ObjHasArray.exit.thread.i.i.i
  ]

Wlc_ObjHasArray.exit.thread.i.i.i:                ; preds = %9, %9, %5
  %12 = getelementptr inbounds nuw i8, ptr %1, i64 16
  %13 = load ptr, ptr %12, align 8, !tbaa !36
  br label %Wlc_ObjFanin1.exit

14:                                               ; preds = %9
  %15 = getelementptr inbounds nuw i8, ptr %1, i64 16
  br label %Wlc_ObjFanin1.exit

Wlc_ObjFanin1.exit:                               ; preds = %Wlc_ObjHasArray.exit.thread.i.i.i, %14
  %16 = phi ptr [ %13, %Wlc_ObjHasArray.exit.thread.i.i.i ], [ %15, %14 ]
  %17 = getelementptr inbounds nuw i8, ptr %16, i64 4
  %18 = load i32, ptr %17, align 4, !tbaa !3
  %19 = getelementptr i8, ptr %0, i64 640
  %.val.i = load ptr, ptr %19, align 8, !tbaa !25
  %20 = sext i32 %18 to i64
  %21 = getelementptr inbounds %struct.Wlc_Obj_t_, ptr %.val.i, i64 %20
  br label %22

22:                                               ; preds = %2, %Wlc_ObjFanin1.exit
  %.in.in.in.in = phi ptr [ %21, %Wlc_ObjFanin1.exit ], [ %1, %2 ]
  %.in.in.in = load i16, ptr %.in.in.in.in, align 8
  %.in.in = lshr i16 %.in.in.in, 6
  %.in = and i16 %.in.in, 1
  %23 = zext nneg i16 %.in to i32
  ret i32 %23
}